; Function Attrs: nounwind sspstrong uwtable
define internal noundef i64 @proc_setpgid(i64 %0, i64 noundef %1, i64 noundef %2) #1 {
  %4 = and i64 %1, 1
  %.not.i = icmp eq i64 %4, 0
  br i1 %.not.i, label %7, label %5

5:                                                ; preds = %3
  %6 = tail call i64 @rb_fix2int(i64 noundef %1) #27
  br label %rb_num2int_inline.exit

7:                                                ; preds = %3
  %8 = tail call i64 @rb_num2int(i64 noundef %1) #27
  br label %rb_num2int_inline.exit

rb_num2int_inline.exit:                           ; preds = %5, %7
  %.0.i = phi i64 [ %6, %5 ], [ %8, %7 ]
  %9 = trunc i64 %.0.i to i32
  %10 = and i64 %2, 1
  %.not.i5 = icmp eq i64 %10, 0
  br i1 %.not.i5, label %13, label %11

11:                                               ; preds = %rb_num2int_inline.exit
  %12 = tail call i64 @rb_fix2int(i64 noundef %2) #27
  br label %rb_num2int_inline.exit7

13:                                               ; preds = %rb_num2int_inline.exit
  %14 = tail call i64 @rb_num2int(i64 noundef %2) #27
  br label %rb_num2int_inline.exit7

rb_num2int_inline.exit7:                          ; preds = %11, %13
  %.0.i6 = phi i64 [ %12, %11 ], [ %14, %13 ]
  %15 = trunc i64 %.0.i6 to i32
  %16 = tail call i32 @setpgid(i32 noundef %9, i32 noundef %15) #27
  %17 = icmp slt i32 %16, 0
  br i1 %17, label %18, label %21

18:                                               ; preds = %rb_num2int_inline.exit7
  %19 = tail call ptr @rb_errno_ptr() #27
  %20 = load i32, ptr %19, align 4, !tbaa !60
  tail call void @rb_syserr_fail(i32 noundef %20, ptr noundef null) #29
  unreachable

21:                                               ; preds = %rb_num2int_inline.exit7
  ret i64 1
}